; Function Attrs: mustprogress uwtable
define internal void @_ZL21DOCTEST_ANON_FUNC_136v() #4 personality ptr @__gxx_personality_v0 {
  %1 = alloca %"class.std::unique_ptr", align 8
  %2 = load i8, ptr @codegen, align 1
  %3 = trunc i8 %2 to i1
  br i1 %3, label %4, label %_ZNSt10unique_ptrI9lua_StatePFvPS0_EED2Ev.exit

4:                                                ; preds = %0
  %5 = tail call noundef i32 @_Z22luau_codegen_supportedv()
  %.not = icmp eq i32 %5, 0
  br i1 %.not, label %_ZNSt10unique_ptrI9lua_StatePFvPS0_EED2Ev.exit, label %6

6:                                                ; preds = %4
  call fastcc void @_ZL14runConformancePKcPFvP9lua_StateES4_S2_P18lua_CompileOptionsbPN4Luau7CodeGen18CompilationOptionsE(ptr dead_on_unwind noalias nonnull writable align 8 %1, ptr noundef nonnull @.str.508, ptr noundef nonnull @"_ZZL21DOCTEST_ANON_FUNC_136vEN3$_08__invokeEP9lua_State", ptr noundef null, ptr noundef null, ptr noundef null, i1 noundef zeroext false, ptr noundef null)
  %7 = getelementptr inbounds i8, ptr %1, i64 8
  %8 = load ptr, ptr %7, align 8
  %.not.i = icmp eq ptr %8, null
  br i1 %.not.i, label %_ZNSt10unique_ptrI9lua_StatePFvPS0_EED2Ev.exit, label %9

9:                                                ; preds = %6
  %10 = load ptr, ptr %1, align 8
  invoke void %10(ptr noundef nonnull %8)
          to label %_ZNSt10unique_ptrI9lua_StatePFvPS0_EED2Ev.exit unwind label %11

11:                                               ; preds = %9
  %12 = landingpad { ptr, i32 }
          catch ptr null
  %13 = extractvalue { ptr, i32 } %12, 0
  tail call void @__clang_call_terminate(ptr %13) #36
  unreachable

_ZNSt10unique_ptrI9lua_StatePFvPS0_EED2Ev.exit:   ; preds = %9, %6, %0, %4
  ret void
}